target datalayout = "e-m:e-p270:32:32-p271:32:32-p272:64:64-i64:64-i128:128-f80:128-n8:16:32:64-S128"
target triple = "x86_64-unknown-linux-gnu"

%struct.PropertyInfo = type { ptr, ptr, ptr, i8, ptr, ptr, ptr, ptr, ptr, ptr }
%struct.Property = type { ptr, ptr, i64, i8, i64, i8, %union.anon, i32, ptr, i32, ptr }
%union.anon = type { i64 }

; Function Attrs: nounwind sspstrong uwtable
define dso_local void @qdev_propinfo_set_default_value_enum(ptr noundef %op, ptr noundef %prop) #0 {
entry:
  %op.addr = alloca ptr, align 8
  %prop.addr = alloca ptr, align 8
  store ptr %op, ptr %op.addr, align 8
  store ptr %prop, ptr %prop.addr, align 8
  %0 = load ptr, ptr %op.addr, align 8
  %1 = load ptr, ptr %prop.addr, align 8
  %info = getelementptr inbounds %struct.Property, ptr %1, i32 0, i32 1
  %2 = load ptr, ptr %info, align 8
  %enum_table = getelementptr inbounds %struct.PropertyInfo, ptr %2, i32 0, i32 2
  %3 = load ptr, ptr %enum_table, align 8
  %4 = load ptr, ptr %prop.addr, align 8
  %defval = getelementptr inbounds %struct.Property, ptr %4, i32 0, i32 6
  %5 = load i64, ptr %defval, align 8
  %conv = trunc i64 %5 to i32
  %call = call ptr @qapi_enum_lookup(ptr noundef %3, i32 noundef %conv)
  call void @object_property_set_default_str(ptr noundef %0, ptr noundef %call)
  ret void
}