; Function Attrs: nounwind sspstrong uwtable
define dso_local void @qdev_propinfo_set_default_value_enum(ptr noundef %op, ptr noundef readonly captures(none) %prop) #0 {
entry:
  %info = getelementptr inbounds nuw i8, ptr %prop, i64 8
  %0 = load ptr, ptr %info, align 8
  %enum_table = getelementptr inbounds nuw i8, ptr %0, i64 16
  %1 = load ptr, ptr %enum_table, align 8
  %defval = getelementptr inbounds nuw i8, ptr %prop, i64 48
  %2 = load i64, ptr %defval, align 8
  %conv = trunc i64 %2 to i32
  %call = tail call ptr @qapi_enum_lookup(ptr noundef %1, i32 noundef %conv) #9
  tail call void @object_property_set_default_str(ptr noundef %op, ptr noundef %call) #9
  ret void
}